target datalayout = "e-m:e-p270:32:32-p271:32:32-p272:64:64-i64:64-i128:128-f80:128-n8:16:32:64-S128"
target triple = "x86_64-unknown-linux-gnu"

%struct.dsa_st = type { i64, ptr, ptr, ptr, ptr, ptr, ptr, ptr, i32, %union.crypto_mutex_st, ptr, i32, %struct.crypto_ex_data_st }
%union.crypto_mutex_st = type { double, [48 x i8] }
%struct.crypto_ex_data_st = type { ptr }
%struct.bignum_st = type { ptr, i32, i32, i32, i32 }

; Function Attrs: nounwind uwtable
define hidden i32 @DSA_generate_key(ptr noundef %dsa) #0 {
entry:
  %dsa.addr = alloca ptr, align 8
  %ok = alloca i32, align 4
  %ctx = alloca ptr, align 8
  %pub_key = alloca ptr, align 8
  %priv_key = alloca ptr, align 8
  %prk = alloca %struct.bignum_st, align 8
  store ptr %dsa, ptr %dsa.addr, align 8
  store i32 0, ptr %ok, align 4
  store ptr null, ptr %ctx, align 8
  store ptr null, ptr %pub_key, align 8
  store ptr null, ptr %priv_key, align 8
  %call = call ptr @BN_CTX_new()
  store ptr %call, ptr %ctx, align 8
  %0 = load ptr, ptr %ctx, align 8
  %cmp = icmp eq ptr %0, null
  br i1 %cmp, label %if.then, label %if.end

if.then:                                          ; preds = %entry
  br label %err

if.end:                                           ; preds = %entry
  %1 = load ptr, ptr %dsa.addr, align 8
  %priv_key1 = getelementptr inbounds %struct.dsa_st, ptr %1, i32 0, i32 5
  %2 = load ptr, ptr %priv_key1, align 8
  store ptr %2, ptr %priv_key, align 8
  %3 = load ptr, ptr %priv_key, align 8
  %cmp2 = icmp eq ptr %3, null
  br i1 %cmp2, label %if.then3, label %if.end8

if.then3:                                         ; preds = %if.end
  %call4 = call ptr @BN_new()
  store ptr %call4, ptr %priv_key, align 8
  %4 = load ptr, ptr %priv_key, align 8
  %cmp5 = icmp eq ptr %4, null
  br i1 %cmp5, label %if.then6, label %if.end7

if.then6:                                         ; preds = %if.then3
  br label %err

if.end7:                                          ; preds = %if.then3
  br label %if.end8

if.end8:                                          ; preds = %if.end7, %if.end
  br label %do.body

do.body:                                          ; preds = %do.cond, %if.end8
  %5 = load ptr, ptr %priv_key, align 8
  %6 = load ptr, ptr %dsa.addr, align 8
  %q = getelementptr inbounds %struct.dsa_st, ptr %6, i32 0, i32 2
  %7 = load ptr, ptr %q, align 8
  %call9 = call i32 @BN_rand_range(ptr noundef %5, ptr noundef %7)
  %tobool = icmp ne i32 %call9, 0
  br i1 %tobool, label %if.end11, label %if.then10

if.then10:                                        ; preds = %do.body
  br label %err

if.end11:                                         ; preds = %do.body
  br label %do.cond

do.cond:                                          ; preds = %if.end11
  %8 = load ptr, ptr %priv_key, align 8
  %call12 = call i32 @BN_is_zero(ptr noundef %8)
  %tobool13 = icmp ne i32 %call12, 0
  br i1 %tobool13, label %do.body, label %do.end, !llvm.loop !12

do.end:                                           ; preds = %do.cond
  %9 = load ptr, ptr %dsa.addr, align 8
  %pub_key14 = getelementptr inbounds %struct.dsa_st, ptr %9, i32 0, i32 4
  %10 = load ptr, ptr %pub_key14, align 8
  store ptr %10, ptr %pub_key, align 8
  %11 = load ptr, ptr %pub_key, align 8
  %cmp15 = icmp eq ptr %11, null
  br i1 %cmp15, label %if.then16, label %if.end21

if.then16:                                        ; preds = %do.end
  %call17 = call ptr @BN_new()
  store ptr %call17, ptr %pub_key, align 8
  %12 = load ptr, ptr %pub_key, align 8
  %cmp18 = icmp eq ptr %12, null
  br i1 %cmp18, label %if.then19, label %if.end20

if.then19:                                        ; preds = %if.then16
  br label %err

if.end20:                                         ; preds = %if.then16
  br label %if.end21

if.end21:                                         ; preds = %if.end20, %do.end
  call void @BN_init(ptr noundef %prk)
  %13 = load ptr, ptr %priv_key, align 8
  call void @BN_with_flags(ptr noundef %prk, ptr noundef %13, i32 noundef 4)
  %14 = load ptr, ptr %pub_key, align 8
  %15 = load ptr, ptr %dsa.addr, align 8
  %g = getelementptr inbounds %struct.dsa_st, ptr %15, i32 0, i32 3
  %16 = load ptr, ptr %g, align 8
  %17 = load ptr, ptr %dsa.addr, align 8
  %p = getelementptr inbounds %struct.dsa_st, ptr %17, i32 0, i32 1
  %18 = load ptr, ptr %p, align 8
  %19 = load ptr, ptr %ctx, align 8
  %call22 = call i32 @BN_mod_exp(ptr noundef %14, ptr noundef %16, ptr noundef %prk, ptr noundef %18, ptr noundef %19)
  %tobool23 = icmp ne i32 %call22, 0
  br i1 %tobool23, label %if.end25, label %if.then24

if.then24:                                        ; preds = %if.end21
  br label %err

if.end25:                                         ; preds = %if.end21
  %20 = load ptr, ptr %priv_key, align 8
  %21 = load ptr, ptr %dsa.addr, align 8
  %priv_key26 = getelementptr inbounds %struct.dsa_st, ptr %21, i32 0, i32 5
  store ptr %20, ptr %priv_key26, align 8
  %22 = load ptr, ptr %pub_key, align 8
  %23 = load ptr, ptr %dsa.addr, align 8
  %pub_key27 = getelementptr inbounds %struct.dsa_st, ptr %23, i32 0, i32 4
  store ptr %22, ptr %pub_key27, align 8
  store i32 1, ptr %ok, align 4
  br label %err

err:                                              ; preds = %if.end25, %if.then24, %if.then19, %if.then10, %if.then6, %if.then
  %24 = load ptr, ptr %dsa.addr, align 8
  %pub_key28 = getelementptr inbounds %struct.dsa_st, ptr %24, i32 0, i32 4
  %25 = load ptr, ptr %pub_key28, align 8
  %cmp29 = icmp eq ptr %25, null
  br i1 %cmp29, label %if.then30, label %if.end31

if.then30:                                        ; preds = %err
  %26 = load ptr, ptr %pub_key, align 8
  call void @BN_free(ptr noundef %26)
  br label %if.end31

if.end31:                                         ; preds = %if.then30, %err
  %27 = load ptr, ptr %dsa.addr, align 8
  %priv_key32 = getelementptr inbounds %struct.dsa_st, ptr %27, i32 0, i32 5
  %28 = load ptr, ptr %priv_key32, align 8
  %cmp33 = icmp eq ptr %28, null
  br i1 %cmp33, label %if.then34, label %if.end35

if.then34:                                        ; preds = %if.end31
  %29 = load ptr, ptr %priv_key, align 8
  call void @BN_free(ptr noundef %29)
  br label %if.end35

if.end35:                                         ; preds = %if.then34, %if.end31
  %30 = load ptr, ptr %ctx, align 8
  call void @BN_CTX_free(ptr noundef %30)
  %31 = load i32, ptr %ok, align 4
  ret i32 %31
}