; Function Attrs: nounwind uwtable
define hidden range(i32 0, 2) i32 @DSA_generate_key(ptr noundef captures(none) %dsa) local_unnamed_addr #0 {
entry:
  %prk = alloca %struct.bignum_st, align 8
  %call = tail call ptr @BN_CTX_new() #8
  %cmp = icmp eq ptr %call, null
  br i1 %cmp, label %err, label %if.end

if.end:                                           ; preds = %entry
  %priv_key1 = getelementptr inbounds nuw i8, ptr %dsa, i64 40
  %0 = load ptr, ptr %priv_key1, align 8
  %cmp2 = icmp eq ptr %0, null
  br i1 %cmp2, label %if.then3, label %if.end8

if.then3:                                         ; preds = %if.end
  %call4 = tail call ptr @BN_new() #8
  %cmp5 = icmp eq ptr %call4, null
  br i1 %cmp5, label %err, label %if.end8

if.end8:                                          ; preds = %if.then3, %if.end
  %priv_key.1 = phi ptr [ %call4, %if.then3 ], [ %0, %if.end ]
  %q = getelementptr inbounds nuw i8, ptr %dsa, i64 16
  br label %do.body

do.body:                                          ; preds = %do.cond, %if.end8
  %1 = load ptr, ptr %q, align 8
  %call9 = tail call i32 @BN_rand_range(ptr noundef nonnull %priv_key.1, ptr noundef %1) #8
  %tobool.not = icmp eq i32 %call9, 0
  br i1 %tobool.not, label %err, label %do.cond

do.cond:                                          ; preds = %do.body
  %call12 = tail call i32 @BN_is_zero(ptr noundef nonnull %priv_key.1) #8
  %tobool13.not = icmp eq i32 %call12, 0
  br i1 %tobool13.not, label %do.end, label %do.body, !llvm.loop !12

do.end:                                           ; preds = %do.cond
  %pub_key14 = getelementptr inbounds nuw i8, ptr %dsa, i64 32
  %2 = load ptr, ptr %pub_key14, align 8
  %cmp15 = icmp eq ptr %2, null
  br i1 %cmp15, label %if.then16, label %if.end21

if.then16:                                        ; preds = %do.end
  %call17 = tail call ptr @BN_new() #8
  %cmp18 = icmp eq ptr %call17, null
  br i1 %cmp18, label %err, label %if.end21

if.end21:                                         ; preds = %if.then16, %do.end
  %pub_key.1 = phi ptr [ %call17, %if.then16 ], [ %2, %do.end ]
  call void @BN_init(ptr noundef nonnull %prk) #8
  call void @BN_with_flags(ptr noundef nonnull %prk, ptr noundef nonnull %priv_key.1, i32 noundef 4) #8
  %g = getelementptr inbounds nuw i8, ptr %dsa, i64 24
  %3 = load ptr, ptr %g, align 8
  %p = getelementptr inbounds nuw i8, ptr %dsa, i64 8
  %4 = load ptr, ptr %p, align 8
  %call22 = call i32 @BN_mod_exp(ptr noundef nonnull %pub_key.1, ptr noundef %3, ptr noundef nonnull %prk, ptr noundef %4, ptr noundef nonnull %call) #8
  %tobool23.not = icmp eq i32 %call22, 0
  br i1 %tobool23.not, label %err, label %if.end25

if.end25:                                         ; preds = %if.end21
  store ptr %priv_key.1, ptr %priv_key1, align 8
  store ptr %pub_key.1, ptr %pub_key14, align 8
  br label %err

err:                                              ; preds = %do.body, %if.end21, %if.then16, %if.then3, %entry, %if.end25
  %ok.0 = phi i32 [ 0, %entry ], [ 0, %if.then3 ], [ 0, %if.then16 ], [ 1, %if.end25 ], [ 0, %if.end21 ], [ 0, %do.body ]
  %pub_key.0 = phi ptr [ null, %entry ], [ null, %if.then3 ], [ null, %if.then16 ], [ %pub_key.1, %if.end25 ], [ %pub_key.1, %if.end21 ], [ null, %do.body ]
  %priv_key.0 = phi ptr [ null, %entry ], [ null, %if.then3 ], [ %priv_key.1, %if.then16 ], [ %priv_key.1, %if.end25 ], [ %priv_key.1, %if.end21 ], [ %priv_key.1, %do.body ]
  %pub_key28 = getelementptr inbounds nuw i8, ptr %dsa, i64 32
  %5 = load ptr, ptr %pub_key28, align 8
  %cmp29 = icmp eq ptr %5, null
  br i1 %cmp29, label %if.then30, label %if.end31

if.then30:                                        ; preds = %err
  call void @BN_free(ptr noundef %pub_key.0) #8
  br label %if.end31

if.end31:                                         ; preds = %if.then30, %err
  %priv_key32 = getelementptr inbounds nuw i8, ptr %dsa, i64 40
  %6 = load ptr, ptr %priv_key32, align 8
  %cmp33 = icmp eq ptr %6, null
  br i1 %cmp33, label %if.then34, label %if.end35

if.then34:                                        ; preds = %if.end31
  call void @BN_free(ptr noundef %priv_key.0) #8
  br label %if.end35

if.end35:                                         ; preds = %if.then34, %if.end31
  call void @BN_CTX_free(ptr noundef %call) #8
  ret i32 %ok.0
}